target datalayout = "e-m:e-p270:32:32-p271:32:32-p272:64:64-i64:64-i128:128-f80:128-n8:16:32:64-S128"
target triple = "x86_64-pc-linux-gnu"

%struct.test_fixture = type { ptr, ptr, i32, i32, i32, ptr, i32, ptr }

@cert = internal global ptr null, align 8
@.str.14 = private unnamed_addr constant [31 x i8] c"../openssl/test/cmp_msg_test.c\00", align 1
@.str.39 = private unnamed_addr constant [19 x i8] c"test_cmp_create_rr\00", align 1
@.str.51 = private unnamed_addr constant [25 x i8] c"valid_asn1_encoding(msg)\00", align 1
@stderr = external global ptr, align 8
@.str.63 = private unnamed_addr constant [50 x i8] c"OSSL_CMP_CTX_set1_oldCert(fixture->cmp_ctx, cert)\00", align 1
@.str.67 = private unnamed_addr constant [42 x i8] c"msg = (ossl_cmp_rr_new(fixture->cmp_ctx))\00", align 1

; Function Attrs: nounwind uwtable
define internal i32 @execute_rr_create_test(ptr noundef %0) #0 {
  %2 = alloca ptr, align 8
  %3 = alloca ptr, align 8
  %4 = alloca i32, align 4
  store ptr %0, ptr %2, align 8, !tbaa !17
  br label %5

5:                                                ; preds = %1
  call void @llvm.lifetime.start.p0(i64 8, ptr %3) #4
  store ptr null, ptr %3, align 8, !tbaa !38
  call void @llvm.lifetime.start.p0(i64 4, ptr %4) #4
  %6 = load ptr, ptr %2, align 8, !tbaa !17
  %7 = getelementptr inbounds nuw %struct.test_fixture, ptr %6, i32 0, i32 6
  %8 = load i32, ptr %7, align 8, !tbaa !27
  %9 = icmp ne i32 %8, 0
  br i1 %9, label %10, label %27

10:                                               ; preds = %5
  %11 = load ptr, ptr %2, align 8, !tbaa !17
  %12 = getelementptr inbounds nuw %struct.test_fixture, ptr %11, i32 0, i32 1
  %13 = load ptr, ptr %12, align 8, !tbaa !28
  %14 = call ptr @ossl_cmp_rr_new(ptr noundef %13)
  store ptr %14, ptr %3, align 8, !tbaa !38
  %15 = call i32 @test_ptr(ptr noundef @.str.14, i32 noundef 104, ptr noundef @.str.67, ptr noundef %14)
  %16 = icmp ne i32 %15, 0
  br i1 %16, label %17, label %24

17:                                               ; preds = %10
  %18 = load ptr, ptr %3, align 8, !tbaa !38
  %19 = call i32 @valid_asn1_encoding(ptr noundef %18)
  %20 = icmp ne i32 %19, 0
  %21 = zext i1 %20 to i32
  %22 = call i32 @test_true(ptr noundef @.str.14, i32 noundef 104, ptr noundef @.str.51, i32 noundef %21)
  %23 = icmp ne i32 %22, 0
  br label %24

24:                                               ; preds = %17, %10
  %25 = phi i1 [ false, %10 ], [ %23, %17 ]
  %26 = zext i1 %25 to i32
  br label %33

27:                                               ; preds = %5
  %28 = load ptr, ptr %2, align 8, !tbaa !17
  %29 = getelementptr inbounds nuw %struct.test_fixture, ptr %28, i32 0, i32 1
  %30 = load ptr, ptr %29, align 8, !tbaa !28
  %31 = call ptr @ossl_cmp_rr_new(ptr noundef %30)
  store ptr %31, ptr %3, align 8, !tbaa !38
  %32 = call i32 @test_ptr_null(ptr noundef @.str.14, i32 noundef 104, ptr noundef @.str.67, ptr noundef %31)
  br label %33

33:                                               ; preds = %27, %24
  %34 = phi i32 [ %26, %24 ], [ %32, %27 ]
  store i32 %34, ptr %4, align 4, !tbaa !19
  %35 = load ptr, ptr %3, align 8, !tbaa !38
  call void @OSSL_CMP_MSG_free(ptr noundef %35)
  %36 = load ptr, ptr @stderr, align 8, !tbaa !39
  call void @ERR_print_errors_fp(ptr noundef %36)
  %37 = load i32, ptr %4, align 4, !tbaa !19
  call void @llvm.lifetime.end.p0(i64 4, ptr %4) #4
  call void @llvm.lifetime.end.p0(i64 8, ptr %3) #4
  br label %38

38:                                               ; preds = %33
  ret i32 %37
}

; Function Attrs: nounwind uwtable
define internal void @tear_down(ptr noundef %0) #0 {
  %2 = alloca ptr, align 8
  store ptr %0, ptr %2, align 8, !tbaa !17
  %3 = load ptr, ptr %2, align 8, !tbaa !17
  %4 = getelementptr inbounds nuw %struct.test_fixture, ptr %3, i32 0, i32 1
  %5 = load ptr, ptr %4, align 8, !tbaa !28
  call void @OSSL_CMP_CTX_free(ptr noundef %5)
  %6 = load ptr, ptr %2, align 8, !tbaa !17
  %7 = getelementptr inbounds nuw %struct.test_fixture, ptr %6, i32 0, i32 5
  %8 = load ptr, ptr %7, align 8, !tbaa !37
  call void @OSSL_CMP_MSG_free(ptr noundef %8)
  %9 = load ptr, ptr %2, align 8, !tbaa !17
  %10 = getelementptr inbounds nuw %struct.test_fixture, ptr %9, i32 0, i32 7
  %11 = load ptr, ptr %10, align 8, !tbaa !30
  call void @OSSL_CMP_PKISI_free(ptr noundef %11)
  %12 = load ptr, ptr %2, align 8, !tbaa !17
  call void @CRYPTO_free(ptr noundef %12, ptr noundef @.str.14, i32 noundef 43)
  ret void
}

; Function Attrs: nounwind uwtable
define internal i32 @test_cmp_create_rr() #0 {
  %1 = alloca i32, align 4
  %2 = alloca ptr, align 8
  %3 = alloca i32, align 4
  %4 = alloca i32, align 4
  call void @llvm.lifetime.start.p0(i64 8, ptr %2) #4
  %5 = call ptr @set_up(ptr noundef @.str.39)
  store ptr %5, ptr %2, align 8, !tbaa !17
  call void @llvm.lifetime.start.p0(i64 4, ptr %3) #4
  store i32 0, ptr %3, align 4, !tbaa !19
  %6 = load ptr, ptr %2, align 8, !tbaa !17
  %7 = icmp eq ptr %6, null
  br i1 %7, label %8, label %9

8:                                                ; preds = %0
  store i32 0, ptr %1, align 4
  store i32 1, ptr %4, align 4
  br label %32

9:                                                ; preds = %0
  %10 = load ptr, ptr %2, align 8, !tbaa !17
  %11 = getelementptr inbounds nuw %struct.test_fixture, ptr %10, i32 0, i32 6
  store i32 1, ptr %11, align 8, !tbaa !27
  %12 = load ptr, ptr %2, align 8, !tbaa !17
  %13 = getelementptr inbounds nuw %struct.test_fixture, ptr %12, i32 0, i32 1
  %14 = load ptr, ptr %13, align 8, !tbaa !28
  %15 = load ptr, ptr @cert, align 8, !tbaa !9
  %16 = call i32 @OSSL_CMP_CTX_set1_oldCert(ptr noundef %14, ptr noundef %15)
  %17 = icmp ne i32 %16, 0
  %18 = zext i1 %17 to i32
  %19 = call i32 @test_true(ptr noundef @.str.14, i32 noundef 354, ptr noundef @.str.63, i32 noundef %18)
  %20 = icmp ne i32 %19, 0
  br i1 %20, label %23, label %21

21:                                               ; preds = %9
  %22 = load ptr, ptr %2, align 8, !tbaa !17
  call void @tear_down(ptr noundef %22)
  store ptr null, ptr %2, align 8, !tbaa !17
  br label %23

23:                                               ; preds = %21, %9
  %24 = load ptr, ptr %2, align 8, !tbaa !17
  %25 = icmp ne ptr %24, null
  br i1 %25, label %26, label %30

26:                                               ; preds = %23
  %27 = load ptr, ptr %2, align 8, !tbaa !17
  %28 = call i32 @execute_rr_create_test(ptr noundef %27)
  store i32 %28, ptr %3, align 4, !tbaa !19
  %29 = load ptr, ptr %2, align 8, !tbaa !17
  call void @tear_down(ptr noundef %29)
  br label %30

30:                                               ; preds = %26, %23
  %31 = load i32, ptr %3, align 4, !tbaa !19
  store i32 %31, ptr %1, align 4
  store i32 1, ptr %4, align 4
  br label %32

32:                                               ; preds = %30, %8
  call void @llvm.lifetime.end.p0(i64 4, ptr %3) #4
  call void @llvm.lifetime.end.p0(i64 8, ptr %2) #4
  %33 = load i32, ptr %1, align 4
  ret i32 %33
}