; Function Attrs: nounwind uwtable
define internal i32 @test_cmp_create_rr() #0 {
  %1 = tail call fastcc ptr @set_up(ptr noundef nonnull @.str.39)
  %2 = icmp eq ptr %1, null
  br i1 %2, label %34, label %3

3:                                                ; preds = %0
  %4 = getelementptr inbounds nuw i8, ptr %1, i64 40
  store i32 1, ptr %4, align 8, !tbaa !24
  %5 = getelementptr inbounds nuw i8, ptr %1, i64 8
  %6 = load ptr, ptr %5, align 8, !tbaa !25
  %7 = load ptr, ptr @cert, align 8, !tbaa !9
  %8 = tail call i32 @OSSL_CMP_CTX_set1_oldCert(ptr noundef %6, ptr noundef %7) #4
  %9 = icmp ne i32 %8, 0
  %10 = zext i1 %9 to i32
  %11 = tail call i32 @test_true(ptr noundef nonnull @.str.14, i32 noundef 354, ptr noundef nonnull @.str.63, i32 noundef %10) #4
  %.not = icmp eq i32 %11, 0
  br i1 %.not, label %.sink.split, label %12

12:                                               ; preds = %3
  %13 = load i32, ptr %4, align 8, !tbaa !24
  %.not.i = icmp eq i32 %13, 0
  %14 = load ptr, ptr %5, align 8, !tbaa !25
  %15 = tail call ptr @ossl_cmp_rr_new(ptr noundef %14) #4
  br i1 %.not.i, label %25, label %16

16:                                               ; preds = %12
  %17 = tail call i32 @test_ptr(ptr noundef nonnull @.str.14, i32 noundef 104, ptr noundef nonnull @.str.67, ptr noundef %15) #4
  %.not5.i = icmp eq i32 %17, 0
  br i1 %.not5.i, label %execute_rr_create_test.exit, label %18

18:                                               ; preds = %16
  %19 = tail call i32 @valid_asn1_encoding(ptr noundef %15) #4
  %20 = icmp ne i32 %19, 0
  %21 = zext i1 %20 to i32
  %22 = tail call i32 @test_true(ptr noundef nonnull @.str.14, i32 noundef 104, ptr noundef nonnull @.str.51, i32 noundef %21) #4
  %23 = icmp ne i32 %22, 0
  %24 = zext i1 %23 to i32
  br label %execute_rr_create_test.exit

25:                                               ; preds = %12
  %26 = tail call i32 @test_ptr_null(ptr noundef nonnull @.str.14, i32 noundef 104, ptr noundef nonnull @.str.67, ptr noundef %15) #4
  br label %execute_rr_create_test.exit

execute_rr_create_test.exit:                      ; preds = %16, %18, %25
  %27 = phi i32 [ %26, %25 ], [ %24, %18 ], [ 0, %16 ]
  tail call void @OSSL_CMP_MSG_free(ptr noundef %15) #4
  %28 = load ptr, ptr @stderr, align 8, !tbaa !28
  tail call void @ERR_print_errors_fp(ptr noundef %28) #4
  br label %.sink.split

.sink.split:                                      ; preds = %3, %execute_rr_create_test.exit
  %.09.ph = phi i32 [ %27, %execute_rr_create_test.exit ], [ 0, %3 ]
  %29 = load ptr, ptr %5, align 8, !tbaa !25
  tail call void @OSSL_CMP_CTX_free(ptr noundef %29) #4
  %30 = getelementptr inbounds nuw i8, ptr %1, i64 32
  %31 = load ptr, ptr %30, align 8, !tbaa !26
  tail call void @OSSL_CMP_MSG_free(ptr noundef %31) #4
  %32 = getelementptr inbounds nuw i8, ptr %1, i64 48
  %33 = load ptr, ptr %32, align 8, !tbaa !27
  tail call void @OSSL_CMP_PKISI_free(ptr noundef %33) #4
  tail call void @CRYPTO_free(ptr noundef nonnull %1, ptr noundef nonnull @.str.14, i32 noundef 43) #4
  br label %34

34:                                               ; preds = %.sink.split, %0
  %.09 = phi i32 [ 0, %0 ], [ %.09.ph, %.sink.split ]
  ret i32 %.09
}